; Function Attrs: nounwind sspstrong uwtable
define dso_local i64 @rb_econv_substr_convert(ptr noundef %0, i64 noundef %1, i64 noundef %2, i64 noundef %3, i32 noundef %4) local_unnamed_addr #0 {
  %6 = alloca i64, align 8
  %7 = alloca ptr, align 8
  call void @llvm.lifetime.start.p0(i64 8, ptr nonnull %6)
  %8 = tail call i64 @rb_str_new_frozen(i64 noundef %1) #22
  store i64 %8, ptr %6, align 8, !tbaa !22
  %9 = inttoptr i64 %8 to ptr
  %10 = load i64, ptr %9, align 8, !tbaa !33, !noalias !128
  %11 = and i64 %10, 8192
  %.not.i.i.i = icmp eq i64 %11, 0
  %12 = getelementptr inbounds nuw i8, ptr %9, i64 24
  br i1 %.not.i.i.i, label %rb_econv_substr_append.exit, label %13

13:                                               ; preds = %5
  %.sroa.2.0.copyload.i.i = load ptr, ptr %12, align 8
  br label %rb_econv_substr_append.exit

rb_econv_substr_append.exit:                      ; preds = %5, %13
  %.sroa.2.0.i.i = phi ptr [ %.sroa.2.0.copyload.i.i, %13 ], [ %12, %5 ]
  %14 = getelementptr i8, ptr %.sroa.2.0.i.i, i64 %2
  %15 = tail call i64 @rb_econv_append(ptr noundef %0, ptr noundef %14, i64 noundef %3, i64 noundef 4, i32 noundef %4)
  call void @llvm.lifetime.start.p0(i64 8, ptr nonnull %7) #22
  store ptr %6, ptr %7, align 8, !tbaa !123
  call void asm sideeffect "", "*m,~{dirflag},~{fpsr},~{flags}"(ptr nonnull elementtype(ptr) %7) #22, !srcloc !124
  %16 = load ptr, ptr %7, align 8, !tbaa !123
  call void @llvm.lifetime.end.p0(i64 8, ptr nonnull %7) #22
  %17 = load volatile i64, ptr %16, align 8, !tbaa !22
  call void @llvm.lifetime.end.p0(i64 8, ptr nonnull %6)
  ret i64 %15
}